; Function Attrs: mustprogress uwtable
define hidden void @_ZN6google26GetExistingTempDirectoriesERSt6vectorINSt7__cxx1112basic_stringIcSt11char_traitsIcESaIcEEESaIS6_EE(ptr noundef nonnull align 8 dereferenceable(24) %0) local_unnamed_addr #0 {
  tail call fastcc void @_ZN6googleL18GetTempDirectoriesERSt6vectorINSt7__cxx1112basic_stringIcSt11char_traitsIcESaIcEEESaIS6_EE(ptr noundef nonnull align 8 dereferenceable(24) %0)
  %2 = load ptr, ptr %0, align 8, !tbaa !126
  %3 = getelementptr inbounds nuw i8, ptr %0, i64 8
  %4 = load ptr, ptr %3, align 8, !tbaa !126
  %.not910 = icmp eq ptr %2, %4
  br i1 %.not910, label %._crit_edge, label %.lr.ph

.lr.ph:                                           ; preds = %1, %16
  %.sroa.05.011 = phi ptr [ %.sroa.05.1, %16 ], [ %2, %1 ]
  %5 = load ptr, ptr %.sroa.05.011, align 8, !tbaa !69
  %6 = tail call i32 @access(ptr noundef %5, i32 noundef 0) #49
  %.not = icmp eq i32 %6, 0
  br i1 %.not, label %14, label %7

7:                                                ; preds = %.lr.ph
  %8 = load ptr, ptr %0, align 8, !tbaa !126
  %9 = ptrtoint ptr %.sroa.05.011 to i64
  %10 = ptrtoint ptr %8 to i64
  %11 = sub i64 %9, %10
  %12 = getelementptr inbounds i8, ptr %8, i64 %11
  %13 = tail call ptr @_ZNSt6vectorINSt7__cxx1112basic_stringIcSt11char_traitsIcESaIcEEESaIS5_EE8_M_eraseEN9__gnu_cxx17__normal_iteratorIPS5_S7_EE(ptr noundef nonnull align 8 dereferenceable(24) %0, ptr %12)
  br label %16

14:                                               ; preds = %.lr.ph
  %15 = getelementptr inbounds nuw i8, ptr %.sroa.05.011, i64 32
  br label %16

16:                                               ; preds = %14, %7
  %.sroa.05.1 = phi ptr [ %15, %14 ], [ %13, %7 ]
  %17 = load ptr, ptr %3, align 8, !tbaa !126
  %.not9 = icmp eq ptr %.sroa.05.1, %17
  br i1 %.not9, label %._crit_edge, label %.lr.ph, !llvm.loop !267

._crit_edge:                                      ; preds = %16, %1
  ret void
}